; Function Attrs: mustprogress nounwind uwtable
define hidden noundef ptr @_ZN10Relocation12new_addr_forEPhPK10CodeBufferPS1_(ptr nocapture noundef nonnull readnone align 8 dereferenceable(20) %0, ptr noundef %1, ptr noundef %2, ptr nocapture noundef readonly %3) local_unnamed_addr #0 align 2 {
  %.not20 = icmp eq ptr %2, null
  br i1 %.not20, label %._crit_edge, label %.lr.ph

.lr.ph:                                           ; preds = %4, %6
  %.021 = phi ptr [ %8, %6 ], [ %2, %4 ]
  %5 = tail call noundef i32 @_ZNK10CodeBuffer16section_index_ofEPh(ptr noundef nonnull align 8 dereferenceable(448) %.021, ptr noundef %1) #19
  %.not15 = icmp eq i32 %5, -1
  br i1 %.not15, label %6, label %10

6:                                                ; preds = %.lr.ph
  %7 = getelementptr inbounds i8, ptr %.021, i64 272
  %8 = load ptr, ptr %7, align 8
  %.not = icmp eq ptr %8, null
  br i1 %.not, label %._crit_edge, label %.lr.ph, !llvm.loop !62

._crit_edge:                                      ; preds = %6, %4
  %9 = load ptr, ptr @g_assert_poison, align 8
  store i8 88, ptr %9, align 1
  tail call void (ptr, i32, ptr, ptr, ...) @_Z15report_vm_errorPKciS0_S0_z(ptr noundef nonnull @.str, i32 noundef 345, ptr noundef nonnull @.str.10, ptr noundef nonnull @.str.11) #20
  unreachable

10:                                               ; preds = %.lr.ph
  %11 = getelementptr inbounds i8, ptr %.021, i64 8
  %12 = sext i32 %5 to i64
  %13 = getelementptr inbounds %class.CodeSection, ptr %11, i64 %12
  %14 = load ptr, ptr %13, align 8
  %15 = getelementptr inbounds i8, ptr %3, i64 8
  %16 = getelementptr inbounds %class.CodeSection, ptr %15, i64 %12
  %17 = load ptr, ptr %16, align 8
  %18 = ptrtoint ptr %1 to i64
  %19 = ptrtoint ptr %14 to i64
  %20 = sub i64 %18, %19
  %21 = getelementptr inbounds i8, ptr %17, i64 %20
  ret ptr %21
}